target datalayout = "e-m:e-p270:32:32-p271:32:32-p272:64:64-i64:64-i128:128-f80:128-n8:16:32:64-S128"
target triple = "x86_64-pc-linux-gnu"

%struct.expert_field = type { i32, i32 }
%struct.true_false_string = type { ptr, ptr }
%struct._asn1_ctx_t = type { i32, i32, i8, ptr, ptr, ptr, ptr, ptr, %struct.anon, %struct.anon.2, %struct.anon.3, ptr }
%struct.anon = type { i32, i8, i8, i8, ptr, ptr, i32, i32, ptr, ptr, ptr, %union.anon }
%union.anon = type { %struct.anon.0 }
%struct.anon.0 = type { ptr }
%struct.anon.2 = type { ptr, ptr, ptr }
%struct.anon.3 = type { i32, i8, ptr, i32, i32, ptr, ptr, ptr, %union.anon.4 }
%union.anon.4 = type { %struct.anon.5 }
%struct.anon.5 = type { ptr }

@.str.3 = private unnamed_addr constant [8 x i8] c"Unknown\00", align 1
@decode_unexpected = internal global i8 0, align 1
@ett_ber_unknown = internal global i32 0, align 4
@last_class = internal global i8 0, align 1
@last_pc = internal global i8 0, align 1
@last_tag = internal global i32 0, align 4
@tfs_constructed_primitive = external constant %struct.true_false_string, align 8
@ei_ber_expected_string = internal global %struct.expert_field zeroinitializer, align 4
@.str.26 = private unnamed_addr constant [81 x i8] c"BER Error: String with tag=%d expected but class:%s(%d) %s tag:%d was unexpected\00", align 1

; Function Attrs: null_pointer_is_valid sspstrong uwtable
define hidden i32 @dissect_ber_constrained_octet_string(i1 noundef zeroext %0, ptr noundef %1, ptr noundef %2, ptr noundef %3, i32 noundef %4, i32 noundef %5, i32 noundef %6, i32 noundef %7, ptr noundef %8) #0 {
  %10 = alloca i8, align 1
  %11 = alloca ptr, align 8
  %12 = alloca ptr, align 8
  %13 = alloca ptr, align 8
  %14 = alloca i32, align 4
  %15 = alloca i32, align 4
  %16 = alloca i32, align 4
  %17 = alloca i32, align 4
  %18 = alloca ptr, align 8
  %19 = zext i1 %0 to i8
  store i8 %19, ptr %10, align 1
  store ptr %1, ptr %11, align 8
  store ptr %2, ptr %12, align 8
  store ptr %3, ptr %13, align 8
  store i32 %4, ptr %14, align 4
  store i32 %5, ptr %15, align 4
  store i32 %6, ptr %16, align 4
  store i32 %7, ptr %17, align 4
  store ptr %8, ptr %18, align 8
  %20 = load i8, ptr %10, align 1, !range !6, !noundef !7
  %21 = trunc i8 %20 to i1
  %22 = load ptr, ptr %11, align 8
  %23 = load ptr, ptr %12, align 8
  %24 = load ptr, ptr %13, align 8
  %25 = load i32, ptr %14, align 4
  %26 = load i32, ptr %15, align 4
  %27 = load i32, ptr %16, align 4
  %28 = load i32, ptr %17, align 4
  %29 = load ptr, ptr %18, align 8
  %30 = call i32 @dissect_ber_constrained_octet_string_impl(i1 noundef zeroext %21, ptr noundef %22, ptr noundef %23, ptr noundef %24, i32 noundef %25, i32 noundef %26, i32 noundef %27, i32 noundef %28, ptr noundef %29, i32 noundef 0, i32 noundef 0)
  ret i32 %30
}

; Function Attrs: null_pointer_is_valid sspstrong uwtable
define i32 @dissect_unknown_ber(ptr noundef %0, ptr noundef %1, i32 noundef %2, ptr noundef %3) #0 {
  %5 = alloca ptr, align 8
  %6 = alloca ptr, align 8
  %7 = alloca i32, align 4
  %8 = alloca ptr, align 8
  store ptr %0, ptr %5, align 8
  store ptr %1, ptr %6, align 8
  store i32 %2, ptr %7, align 4
  store ptr %3, ptr %8, align 8
  %9 = load ptr, ptr %5, align 8
  %10 = load ptr, ptr %6, align 8
  %11 = load i32, ptr %7, align 4
  %12 = load ptr, ptr %8, align 8
  %13 = call i32 @try_dissect_unknown_ber(ptr noundef %9, ptr noundef %10, i32 noundef %11, ptr noundef %12, i32 noundef 1)
  ret i32 %13
}

; Function Attrs: null_pointer_is_valid sspstrong uwtable
define i32 @get_ber_length(ptr noundef %0, i32 noundef %1, ptr noundef %2, ptr noundef %3) #0 {
  %5 = alloca ptr, align 8
  %6 = alloca i32, align 4
  %7 = alloca ptr, align 8
  %8 = alloca ptr, align 8
  store ptr %0, ptr %5, align 8
  store i32 %1, ptr %6, align 4
  store ptr %2, ptr %7, align 8
  store ptr %3, ptr %8, align 8
  %9 = load ptr, ptr %5, align 8
  %10 = load i32, ptr %6, align 4
  %11 = load ptr, ptr %7, align 8
  %12 = load ptr, ptr %8, align 8
  %13 = call i32 @try_get_ber_length(ptr noundef %9, i32 noundef %10, ptr noundef %11, ptr noundef %12, i32 noundef 1)
  ret i32 %13
}

; Function Attrs: null_pointer_is_valid sspstrong uwtable
define i32 @get_ber_identifier(ptr noundef %0, i32 noundef %1, ptr noundef %2, ptr noundef %3, ptr noundef %4) #0 {
  %6 = alloca ptr, align 8
  %7 = alloca i32, align 4
  %8 = alloca ptr, align 8
  %9 = alloca ptr, align 8
  %10 = alloca ptr, align 8
  %11 = alloca i8, align 1
  %12 = alloca i8, align 1
  %13 = alloca i8, align 1
  %14 = alloca i8, align 1
  %15 = alloca i32, align 4
  store ptr %0, ptr %6, align 8
  store i32 %1, ptr %7, align 4
  store ptr %2, ptr %8, align 8
  store ptr %3, ptr %9, align 8
  store ptr %4, ptr %10, align 8
  call void @llvm.lifetime.start.p0(i64 1, ptr %11) #12
  call void @llvm.lifetime.start.p0(i64 1, ptr %12) #12
  call void @llvm.lifetime.start.p0(i64 1, ptr %13) #12
  call void @llvm.lifetime.start.p0(i64 1, ptr %14) #12
  call void @llvm.lifetime.start.p0(i64 4, ptr %15) #12
  %16 = load ptr, ptr %6, align 8
  %17 = load i32, ptr %7, align 4
  %18 = call zeroext i8 @tvb_get_uint8(ptr noundef %16, i32 noundef %17)
  store i8 %18, ptr %11, align 1
  %19 = load i32, ptr %7, align 4
  %20 = add i32 %19, 1
  store i32 %20, ptr %7, align 4
  %21 = load i8, ptr %11, align 1
  %22 = zext i8 %21 to i32
  %23 = ashr i32 %22, 6
  %24 = and i32 %23, 3
  %25 = trunc i32 %24 to i8
  store i8 %25, ptr %13, align 1
  %26 = load i8, ptr %11, align 1
  %27 = zext i8 %26 to i32
  %28 = ashr i32 %27, 5
  %29 = and i32 %28, 1
  %30 = icmp ne i32 %29, 0
  %31 = zext i1 %30 to i8
  store i8 %31, ptr %14, align 1
  %32 = load i8, ptr %11, align 1
  %33 = zext i8 %32 to i32
  %34 = and i32 %33, 31
  store i32 %34, ptr %15, align 4
  %35 = load i32, ptr %15, align 4
  %36 = icmp eq i32 %35, 31
  br i1 %36, label %37, label %63

37:                                               ; preds = %5
  store i32 0, ptr %15, align 4
  br label %38

38:                                               ; preds = %61, %37
  %39 = load ptr, ptr %6, align 8
  %40 = load i32, ptr %7, align 4
  %41 = call i32 @tvb_reported_length_remaining(ptr noundef %39, i32 noundef %40)
  %42 = icmp sgt i32 %41, 0
  br i1 %42, label %43, label %62

43:                                               ; preds = %38
  %44 = load ptr, ptr %6, align 8
  %45 = load i32, ptr %7, align 4
  %46 = call zeroext i8 @tvb_get_uint8(ptr noundef %44, i32 noundef %45)
  store i8 %46, ptr %12, align 1
  %47 = load i32, ptr %7, align 4
  %48 = add i32 %47, 1
  store i32 %48, ptr %7, align 4
  %49 = load i32, ptr %15, align 4
  %50 = shl i32 %49, 7
  store i32 %50, ptr %15, align 4
  %51 = load i8, ptr %12, align 1
  %52 = zext i8 %51 to i32
  %53 = and i32 %52, 127
  %54 = load i32, ptr %15, align 4
  %55 = or i32 %54, %53
  store i32 %55, ptr %15, align 4
  %56 = load i8, ptr %12, align 1
  %57 = zext i8 %56 to i32
  %58 = and i32 %57, 128
  %59 = icmp ne i32 %58, 0
  br i1 %59, label %61, label %60

60:                                               ; preds = %43
  br label %62

61:                                               ; preds = %43
  br label %38, !llvm.loop !13

62:                                               ; preds = %60, %38
  br label %63

63:                                               ; preds = %62, %5
  %64 = load ptr, ptr %8, align 8
  %65 = icmp ne ptr %64, null
  br i1 %65, label %66, label %69

66:                                               ; preds = %63
  %67 = load i8, ptr %13, align 1
  %68 = load ptr, ptr %8, align 8
  store i8 %67, ptr %68, align 1
  br label %69

69:                                               ; preds = %66, %63
  %70 = load ptr, ptr %9, align 8
  %71 = icmp ne ptr %70, null
  br i1 %71, label %72, label %77

72:                                               ; preds = %69
  %73 = load i8, ptr %14, align 1, !range !6, !noundef !7
  %74 = trunc i8 %73 to i1
  %75 = load ptr, ptr %9, align 8
  %76 = zext i1 %74 to i8
  store i8 %76, ptr %75, align 1
  br label %77

77:                                               ; preds = %72, %69
  %78 = load ptr, ptr %10, align 8
  %79 = icmp ne ptr %78, null
  br i1 %79, label %80, label %83

80:                                               ; preds = %77
  %81 = load i32, ptr %15, align 4
  %82 = load ptr, ptr %10, align 8
  store i32 %81, ptr %82, align 4
  br label %83

83:                                               ; preds = %80, %77
  %84 = load i8, ptr %13, align 1
  store i8 %84, ptr @last_class, align 1
  %85 = load i8, ptr %14, align 1, !range !6, !noundef !7
  %86 = trunc i8 %85 to i1
  %87 = zext i1 %86 to i8
  store i8 %87, ptr @last_pc, align 1
  %88 = load i32, ptr %15, align 4
  store i32 %88, ptr @last_tag, align 4
  %89 = load i32, ptr %7, align 4
  call void @llvm.lifetime.end.p0(i64 4, ptr %15) #12
  call void @llvm.lifetime.end.p0(i64 1, ptr %14) #12
  call void @llvm.lifetime.end.p0(i64 1, ptr %13) #12
  call void @llvm.lifetime.end.p0(i64 1, ptr %12) #12
  call void @llvm.lifetime.end.p0(i64 1, ptr %11) #12
  ret i32 %89
}

; Function Attrs: null_pointer_is_valid sspstrong uwtable
define hidden i32 @dissect_ber_constrained_restricted_string(i1 noundef zeroext %0, i32 noundef %1, ptr noundef %2, ptr noundef %3, ptr noundef %4, i32 noundef %5, i32 noundef %6, i32 noundef %7, i32 noundef %8, ptr noundef %9) #0 {
  %11 = alloca i32, align 4
  %12 = alloca i8, align 1
  %13 = alloca i32, align 4
  %14 = alloca ptr, align 8
  %15 = alloca ptr, align 8
  %16 = alloca ptr, align 8
  %17 = alloca i32, align 4
  %18 = alloca i32, align 4
  %19 = alloca i32, align 4
  %20 = alloca i32, align 4
  %21 = alloca ptr, align 8
  %22 = alloca i8, align 1
  %23 = alloca i8, align 1
  %24 = alloca i32, align 4
  %25 = alloca i32, align 4
  %26 = alloca i32, align 4
  %27 = alloca i32, align 4
  %28 = alloca i32, align 4
  %29 = alloca i32, align 4
  %30 = alloca ptr, align 8
  %31 = alloca ptr, align 8
  %32 = alloca i32, align 4
  %33 = zext i1 %0 to i8
  store i8 %33, ptr %12, align 1
  store i32 %1, ptr %13, align 4
  store ptr %2, ptr %14, align 8
  store ptr %3, ptr %15, align 8
  store ptr %4, ptr %16, align 8
  store i32 %5, ptr %17, align 4
  store i32 %6, ptr %18, align 4
  store i32 %7, ptr %19, align 4
  store i32 %8, ptr %20, align 4
  store ptr %9, ptr %21, align 8
  call void @llvm.lifetime.start.p0(i64 1, ptr %22) #12
  call void @llvm.lifetime.start.p0(i64 1, ptr %23) #12
  call void @llvm.lifetime.start.p0(i64 4, ptr %24) #12
  call void @llvm.lifetime.start.p0(i64 4, ptr %25) #12
  call void @llvm.lifetime.start.p0(i64 4, ptr %26) #12
  call void @llvm.lifetime.start.p0(i64 4, ptr %27) #12
  call void @llvm.lifetime.start.p0(i64 4, ptr %28) #12
  call void @llvm.lifetime.start.p0(i64 4, ptr %29) #12
  %34 = load i32, ptr %17, align 4
  store i32 %34, ptr %29, align 4
  call void @llvm.lifetime.start.p0(i64 8, ptr %30) #12
  %35 = load i8, ptr %12, align 1, !range !6, !noundef !7
  %36 = trunc i8 %35 to i1
  br i1 %36, label %95, label %37

37:                                               ; preds = %10
  %38 = load i32, ptr %17, align 4
  store i32 %38, ptr %25, align 4
  %39 = load ptr, ptr %16, align 8
  %40 = load i32, ptr %17, align 4
  %41 = call i32 @get_ber_identifier(ptr noundef %39, i32 noundef %40, ptr noundef %22, ptr noundef %23, ptr noundef %24)
  store i32 %41, ptr %17, align 4
  %42 = load i32, ptr %17, align 4
  %43 = load i32, ptr %25, align 4
  %44 = sub i32 %42, %43
  store i32 %44, ptr %26, align 4
  %45 = load ptr, ptr %16, align 8
  %46 = load i32, ptr %17, align 4
  %47 = call i32 @get_ber_length(ptr noundef %45, i32 noundef %46, ptr noundef %27, ptr noundef null)
  store i32 %47, ptr %17, align 4
  %48 = load i32, ptr %17, align 4
  %49 = load i32, ptr %27, align 4
  %50 = add i32 %48, %49
  store i32 %50, ptr %28, align 4
  %51 = load i8, ptr %22, align 1
  %52 = sext i8 %51 to i32
  %53 = icmp ne i32 %52, 0
  br i1 %53, label %58, label %54

54:                                               ; preds = %37
  %55 = load i32, ptr %24, align 4
  %56 = load i32, ptr %13, align 4
  %57 = icmp ne i32 %55, %56
  br i1 %57, label %58, label %94

58:                                               ; preds = %54, %37
  %59 = load ptr, ptr %16, align 8
  %60 = load i32, ptr %29, align 4
  call void @tvb_ensure_bytes_exist(ptr noundef %59, i32 noundef %60, i32 noundef 2)
  %61 = load ptr, ptr %15, align 8
  %62 = load ptr, ptr %14, align 8
  %63 = getelementptr inbounds nuw %struct._asn1_ctx_t, ptr %62, i32 0, i32 3
  %64 = load ptr, ptr %63, align 8
  %65 = load ptr, ptr %16, align 8
  %66 = load i32, ptr %25, align 4
  %67 = load i32, ptr %26, align 4
  %68 = load i32, ptr %13, align 4
  %69 = load i8, ptr %22, align 1
  %70 = sext i8 %69 to i32
  %71 = call ptr @val_to_str_const(i32 noundef %70, ptr noundef @ber_class_codes, ptr noundef @.str.3)
  %72 = load i8, ptr %22, align 1
  %73 = sext i8 %72 to i32
  %74 = load i8, ptr %23, align 1, !range !6, !noundef !7
  %75 = trunc i8 %74 to i1
  %76 = call ptr @tfs_get_string(i1 noundef zeroext %75, ptr noundef @tfs_constructed_primitive)
  %77 = load i32, ptr %24, align 4
  %78 = call ptr (ptr, ptr, ptr, ptr, i32, i32, ptr, ...) @proto_tree_add_expert_format(ptr noundef %61, ptr noundef %64, ptr noundef @ei_ber_expected_string, ptr noundef %65, i32 noundef %66, i32 noundef %67, ptr noundef @.str.26, i32 noundef %68, ptr noundef %71, i32 noundef %73, ptr noundef %76, i32 noundef %77)
  store ptr %78, ptr %30, align 8
  %79 = load i8, ptr @decode_unexpected, align 1, !range !6, !noundef !7
  %80 = trunc i8 %79 to i1
  br i1 %80, label %81, label %92

81:                                               ; preds = %58
  call void @llvm.lifetime.start.p0(i64 8, ptr %31) #12
  %82 = load ptr, ptr %30, align 8
  %83 = load i32, ptr @ett_ber_unknown, align 4
  %84 = call ptr @proto_item_add_subtree(ptr noundef %82, i32 noundef %83)
  store ptr %84, ptr %31, align 8
  %85 = load ptr, ptr %14, align 8
  %86 = getelementptr inbounds nuw %struct._asn1_ctx_t, ptr %85, i32 0, i32 3
  %87 = load ptr, ptr %86, align 8
  %88 = load ptr, ptr %16, align 8
  %89 = load i32, ptr %29, align 4
  %90 = load ptr, ptr %31, align 8
  %91 = call i32 @dissect_unknown_ber(ptr noundef %87, ptr noundef %88, i32 noundef %89, ptr noundef %90)
  call void @llvm.lifetime.end.p0(i64 8, ptr %31) #12
  br label %92

92:                                               ; preds = %81, %58
  %93 = load i32, ptr %28, align 4
  store i32 %93, ptr %11, align 4
  store i32 1, ptr %32, align 4
  br label %107

94:                                               ; preds = %54
  br label %95

95:                                               ; preds = %94, %10
  %96 = load i8, ptr %12, align 1, !range !6, !noundef !7
  %97 = trunc i8 %96 to i1
  %98 = load ptr, ptr %14, align 8
  %99 = load ptr, ptr %15, align 8
  %100 = load ptr, ptr %16, align 8
  %101 = load i32, ptr %29, align 4
  %102 = load i32, ptr %18, align 4
  %103 = load i32, ptr %19, align 4
  %104 = load i32, ptr %20, align 4
  %105 = load ptr, ptr %21, align 8
  %106 = call i32 @dissect_ber_constrained_octet_string(i1 noundef zeroext %97, ptr noundef %98, ptr noundef %99, ptr noundef %100, i32 noundef %101, i32 noundef %102, i32 noundef %103, i32 noundef %104, ptr noundef %105)
  store i32 %106, ptr %11, align 4
  store i32 1, ptr %32, align 4
  br label %107

107:                                              ; preds = %95, %92
  call void @llvm.lifetime.end.p0(i64 8, ptr %30) #12
  call void @llvm.lifetime.end.p0(i64 4, ptr %29) #12
  call void @llvm.lifetime.end.p0(i64 4, ptr %28) #12
  call void @llvm.lifetime.end.p0(i64 4, ptr %27) #12
  call void @llvm.lifetime.end.p0(i64 4, ptr %26) #12
  call void @llvm.lifetime.end.p0(i64 4, ptr %25) #12
  call void @llvm.lifetime.end.p0(i64 4, ptr %24) #12
  call void @llvm.lifetime.end.p0(i64 1, ptr %23) #12
  call void @llvm.lifetime.end.p0(i64 1, ptr %22) #12
  %108 = load i32, ptr %11, align 4
  ret i32 %108
}