; Function Attrs: null_pointer_is_valid sspstrong uwtable
define hidden i32 @dissect_ber_constrained_restricted_string(i1 noundef zeroext %0, i32 noundef %1, ptr noundef %2, ptr noundef %3, ptr noundef %4, i32 noundef %5, i32 noundef %6, i32 noundef %7, i32 noundef %8, ptr noundef %9) local_unnamed_addr #0 {
  %11 = alloca i32, align 4
  call void @llvm.lifetime.start.p0(i64 4, ptr nonnull %11) #14
  br i1 %0, label %48, label %12

12:                                               ; preds = %10
  %13 = tail call zeroext i8 @tvb_get_uint8(ptr noundef %4, i32 noundef %5)
  %14 = add i32 %5, 1
  %15 = lshr i8 %13, 6
  %16 = lshr i8 %13, 5
  %.lobit.i = and i8 %16, 1
  %17 = and i8 %13, 31
  %18 = zext nneg i8 %17 to i32
  %19 = icmp eq i8 %17, 31
  br i1 %19, label %.preheader.i, label %get_ber_identifier.exit

.preheader.i:                                     ; preds = %12, %22
  %.129.i = phi i32 [ %24, %22 ], [ %14, %12 ]
  %.1.i = phi i32 [ %28, %22 ], [ 0, %12 ]
  %20 = tail call i32 @tvb_reported_length_remaining(ptr noundef %4, i32 noundef %.129.i)
  %21 = icmp sgt i32 %20, 0
  br i1 %21, label %22, label %get_ber_identifier.exit

22:                                               ; preds = %.preheader.i
  %23 = tail call zeroext i8 @tvb_get_uint8(ptr noundef %4, i32 noundef %.129.i)
  %24 = add i32 %.129.i, 1
  %25 = shl i32 %.1.i, 7
  %26 = and i8 %23, 127
  %27 = zext nneg i8 %26 to i32
  %28 = or disjoint i32 %25, %27
  %.not.i = icmp sgt i8 %23, -1
  br i1 %.not.i, label %get_ber_identifier.exit, label %.preheader.i, !llvm.loop !6

get_ber_identifier.exit:                          ; preds = %.preheader.i, %22, %12
  %.028.i = phi i32 [ %14, %12 ], [ %24, %22 ], [ %.129.i, %.preheader.i ]
  %.0.i = phi i32 [ %18, %12 ], [ %28, %22 ], [ %.1.i, %.preheader.i ]
  store i8 %15, ptr @last_class, align 1
  store i8 %.lobit.i, ptr @last_pc, align 1
  store i32 %.0.i, ptr @last_tag, align 4
  %29 = call fastcc noundef i32 @try_get_ber_length(ptr noundef %4, i32 noundef %.028.i, ptr noundef nonnull %11, ptr noundef null, i32 noundef 1)
  %30 = load i32, ptr %11, align 4
  %31 = add i32 %30, %29
  %.not = icmp ult i8 %13, 64
  %.not34 = icmp eq i32 %.0.i, %1
  %or.cond = select i1 %.not, i1 %.not34, i1 false
  br i1 %or.cond, label %48, label %32

32:                                               ; preds = %get_ber_identifier.exit
  %33 = sub i32 %.028.i, %5
  call void @tvb_ensure_bytes_exist(ptr noundef %4, i32 noundef %5, i32 noundef 2)
  %34 = getelementptr inbounds nuw i8, ptr %2, i64 16
  %35 = load ptr, ptr %34, align 8
  %36 = zext nneg i8 %15 to i32
  %37 = call ptr @val_to_str_const(i32 noundef %36, ptr noundef nonnull @ber_class_codes, ptr noundef nonnull @.str.3)
  %38 = trunc i8 %16 to i1
  %39 = call ptr @tfs_get_string(i1 noundef zeroext %38, ptr noundef nonnull @tfs_constructed_primitive)
  %40 = call ptr (ptr, ptr, ptr, ptr, i32, i32, ptr, ...) @proto_tree_add_expert_format(ptr noundef %3, ptr noundef %35, ptr noundef nonnull @ei_ber_expected_string, ptr noundef %4, i32 noundef %5, i32 noundef %33, ptr noundef nonnull @.str.26, i32 noundef %1, ptr noundef %37, i32 noundef %36, ptr noundef %39, i32 noundef %.0.i)
  %41 = load i8, ptr @decode_unexpected, align 1, !range !8, !noundef !9
  %42 = trunc nuw i8 %41 to i1
  br i1 %42, label %43, label %50

43:                                               ; preds = %32
  %44 = load i32, ptr @ett_ber_unknown, align 4
  %45 = call ptr @proto_item_add_subtree(ptr noundef %40, i32 noundef %44)
  %46 = load ptr, ptr %34, align 8
  %47 = call fastcc i32 @try_dissect_unknown_ber(ptr noundef %46, ptr noundef %4, i32 noundef %5, ptr noundef %45, i32 noundef 1)
  br label %50

48:                                               ; preds = %get_ber_identifier.exit, %10
  %49 = call fastcc i32 @dissect_ber_constrained_octet_string_impl(i1 noundef zeroext %0, ptr noundef %2, ptr noundef %3, ptr noundef %4, i32 noundef %5, i32 noundef %6, i32 noundef %7, i32 noundef %8, ptr noundef %9, i32 noundef 0, i32 noundef 0)
  br label %50

50:                                               ; preds = %32, %43, %48
  %.0 = phi i32 [ %49, %48 ], [ %31, %43 ], [ %31, %32 ]
  call void @llvm.lifetime.end.p0(i64 4, ptr nonnull %11) #14
  ret i32 %.0
}